target datalayout = "e-m:e-p270:32:32-p271:32:32-p272:64:64-i64:64-i128:128-f80:128-n8:16:32:64-S128"
target triple = "x86_64-pc-linux-gnu"

%struct.KDF_SSHKDF = type { ptr, %struct.PROV_DIGEST, ptr, i64, ptr, i64, i8, ptr, i64 }
%struct.PROV_DIGEST = type { ptr, ptr, ptr }
%struct.ossl_param_st = type { ptr, i32, ptr, i64, i64 }

@.str = private unnamed_addr constant [51 x i8] c"../openssl/providers/implementations/kdfs/sshkdf.c\00", align 1
@.str.2 = private unnamed_addr constant [7 x i8] c"digest\00", align 1
@.str.3 = private unnamed_addr constant [4 x i8] c"key\00", align 1
@.str.4 = private unnamed_addr constant [8 x i8] c"xcghash\00", align 1
@.str.5 = private unnamed_addr constant [11 x i8] c"session_id\00", align 1
@.str.6 = private unnamed_addr constant [5 x i8] c"type\00", align 1
@__func__.kdf_sshkdf_set_ctx_params = private unnamed_addr constant [26 x i8] c"kdf_sshkdf_set_ctx_params\00", align 1

; Function Attrs: nounwind uwtable
define internal i32 @sshkdf_set_membuf(ptr noundef %0, ptr noundef %1, ptr noundef %2) #0 {
  %4 = alloca ptr, align 8
  %5 = alloca ptr, align 8
  %6 = alloca ptr, align 8
  store ptr %0, ptr %4, align 8, !tbaa !38
  store ptr %1, ptr %5, align 8, !tbaa !40
  store ptr %2, ptr %6, align 8, !tbaa !23
  %7 = load ptr, ptr %4, align 8, !tbaa !38
  %8 = load ptr, ptr %7, align 8, !tbaa !21
  %9 = load ptr, ptr %5, align 8, !tbaa !40
  %10 = load i64, ptr %9, align 8, !tbaa !22
  call void @CRYPTO_clear_free(ptr noundef %8, i64 noundef %10, ptr noundef @.str, i32 noundef 121)
  %11 = load ptr, ptr %4, align 8, !tbaa !38
  store ptr null, ptr %11, align 8, !tbaa !21
  %12 = load ptr, ptr %5, align 8, !tbaa !40
  store i64 0, ptr %12, align 8, !tbaa !22
  %13 = load ptr, ptr %6, align 8, !tbaa !23
  %14 = load ptr, ptr %4, align 8, !tbaa !38
  %15 = load ptr, ptr %5, align 8, !tbaa !40
  %16 = call i32 @OSSL_PARAM_get_octet_string(ptr noundef %13, ptr noundef %14, i64 noundef 0, ptr noundef %15)
  ret i32 %16
}

; Function Attrs: inlinehint nounwind uwtable
define internal i32 @ossl_param_is_empty(ptr noundef %0) #5 {
  %2 = alloca ptr, align 8
  store ptr %0, ptr %2, align 8, !tbaa !23
  %3 = load ptr, ptr %2, align 8, !tbaa !23
  %4 = icmp eq ptr %3, null
  br i1 %4, label %10, label %5

5:                                                ; preds = %1
  %6 = load ptr, ptr %2, align 8, !tbaa !23
  %7 = getelementptr inbounds nuw %struct.ossl_param_st, ptr %6, i32 0, i32 0
  %8 = load ptr, ptr %7, align 8, !tbaa !37
  %9 = icmp eq ptr %8, null
  br label %10

10:                                               ; preds = %5, %1
  %11 = phi i1 [ true, %1 ], [ %9, %5 ]
  %12 = zext i1 %11 to i32
  ret i32 %12
}

; Function Attrs: nounwind uwtable
define internal i32 @kdf_sshkdf_set_ctx_params(ptr noundef %0, ptr noundef %1) #0 {
  %3 = alloca i32, align 4
  %4 = alloca ptr, align 8
  %5 = alloca ptr, align 8
  %6 = alloca ptr, align 8
  %7 = alloca ptr, align 8
  %8 = alloca ptr, align 8
  %9 = alloca i32, align 4
  %10 = alloca ptr, align 8
  %11 = alloca ptr, align 8
  store ptr %0, ptr %4, align 8, !tbaa !3
  store ptr %1, ptr %5, align 8, !tbaa !23
  call void @llvm.lifetime.start.p0(i64 8, ptr %6) #6
  call void @llvm.lifetime.start.p0(i64 8, ptr %7) #6
  %12 = load ptr, ptr %4, align 8, !tbaa !3
  store ptr %12, ptr %7, align 8, !tbaa !3
  call void @llvm.lifetime.start.p0(i64 8, ptr %8) #6
  %13 = load ptr, ptr %7, align 8, !tbaa !3
  %14 = getelementptr inbounds nuw %struct.KDF_SSHKDF, ptr %13, i32 0, i32 0
  %15 = load ptr, ptr %14, align 8, !tbaa !7
  %16 = call ptr @ossl_prov_ctx_get0_libctx(ptr noundef %15)
  store ptr %16, ptr %8, align 8, !tbaa !26
  %17 = load ptr, ptr %5, align 8, !tbaa !23
  %18 = call i32 @ossl_param_is_empty(ptr noundef %17)
  %19 = icmp ne i32 %18, 0
  br i1 %19, label %20, label %21

20:                                               ; preds = %2
  store i32 1, ptr %3, align 4
  store i32 1, ptr %9, align 4
  br label %128

21:                                               ; preds = %2
  %22 = load ptr, ptr %5, align 8, !tbaa !23
  %23 = call ptr @OSSL_PARAM_locate_const(ptr noundef %22, ptr noundef @.str.2)
  %24 = icmp ne ptr %23, null
  br i1 %24, label %25, label %45

25:                                               ; preds = %21
  call void @llvm.lifetime.start.p0(i64 8, ptr %10) #6
  store ptr null, ptr %10, align 8, !tbaa !25
  %26 = load ptr, ptr %7, align 8, !tbaa !3
  %27 = getelementptr inbounds nuw %struct.KDF_SSHKDF, ptr %26, i32 0, i32 1
  %28 = load ptr, ptr %5, align 8, !tbaa !23
  %29 = load ptr, ptr %8, align 8, !tbaa !26
  %30 = call i32 @ossl_prov_digest_load_from_params(ptr noundef %27, ptr noundef %28, ptr noundef %29)
  %31 = icmp ne i32 %30, 0
  br i1 %31, label %33, label %32

32:                                               ; preds = %25
  store i32 0, ptr %3, align 4
  store i32 1, ptr %9, align 4
  br label %42

33:                                               ; preds = %25
  %34 = load ptr, ptr %7, align 8, !tbaa !3
  %35 = getelementptr inbounds nuw %struct.KDF_SSHKDF, ptr %34, i32 0, i32 1
  %36 = call ptr @ossl_prov_digest_md(ptr noundef %35)
  store ptr %36, ptr %10, align 8, !tbaa !25
  %37 = load ptr, ptr %10, align 8, !tbaa !25
  %38 = call i32 @EVP_MD_xof(ptr noundef %37)
  %39 = icmp ne i32 %38, 0
  br i1 %39, label %40, label %41

40:                                               ; preds = %33
  call void @ERR_new()
  call void @ERR_set_debug(ptr noundef @.str, i32 noundef 233, ptr noundef @__func__.kdf_sshkdf_set_ctx_params)
  call void (i32, i32, ptr, ...) @ERR_set_error(i32 noundef 57, i32 noundef 183, ptr noundef null)
  store i32 0, ptr %3, align 4
  store i32 1, ptr %9, align 4
  br label %42

41:                                               ; preds = %33
  store i32 0, ptr %9, align 4
  br label %42

42:                                               ; preds = %41, %40, %32
  call void @llvm.lifetime.end.p0(i64 8, ptr %10) #6
  %43 = load i32, ptr %9, align 4
  switch i32 %43, label %128 [
    i32 0, label %44
  ]

44:                                               ; preds = %42
  br label %45

45:                                               ; preds = %44, %21
  %46 = load ptr, ptr %5, align 8, !tbaa !23
  %47 = call ptr @OSSL_PARAM_locate_const(ptr noundef %46, ptr noundef @.str.3)
  store ptr %47, ptr %6, align 8, !tbaa !23
  %48 = icmp ne ptr %47, null
  br i1 %48, label %49, label %59

49:                                               ; preds = %45
  %50 = load ptr, ptr %7, align 8, !tbaa !3
  %51 = getelementptr inbounds nuw %struct.KDF_SSHKDF, ptr %50, i32 0, i32 2
  %52 = load ptr, ptr %7, align 8, !tbaa !3
  %53 = getelementptr inbounds nuw %struct.KDF_SSHKDF, ptr %52, i32 0, i32 3
  %54 = load ptr, ptr %6, align 8, !tbaa !23
  %55 = call i32 @sshkdf_set_membuf(ptr noundef %51, ptr noundef %53, ptr noundef %54)
  %56 = icmp ne i32 %55, 0
  br i1 %56, label %58, label %57

57:                                               ; preds = %49
  store i32 0, ptr %3, align 4
  store i32 1, ptr %9, align 4
  br label %128

58:                                               ; preds = %49
  br label %59

59:                                               ; preds = %58, %45
  %60 = load ptr, ptr %5, align 8, !tbaa !23
  %61 = call ptr @OSSL_PARAM_locate_const(ptr noundef %60, ptr noundef @.str.4)
  store ptr %61, ptr %6, align 8, !tbaa !23
  %62 = icmp ne ptr %61, null
  br i1 %62, label %63, label %73

63:                                               ; preds = %59
  %64 = load ptr, ptr %7, align 8, !tbaa !3
  %65 = getelementptr inbounds nuw %struct.KDF_SSHKDF, ptr %64, i32 0, i32 4
  %66 = load ptr, ptr %7, align 8, !tbaa !3
  %67 = getelementptr inbounds nuw %struct.KDF_SSHKDF, ptr %66, i32 0, i32 5
  %68 = load ptr, ptr %6, align 8, !tbaa !23
  %69 = call i32 @sshkdf_set_membuf(ptr noundef %65, ptr noundef %67, ptr noundef %68)
  %70 = icmp ne i32 %69, 0
  br i1 %70, label %72, label %71

71:                                               ; preds = %63
  store i32 0, ptr %3, align 4
  store i32 1, ptr %9, align 4
  br label %128

72:                                               ; preds = %63
  br label %73

73:                                               ; preds = %72, %59
  %74 = load ptr, ptr %5, align 8, !tbaa !23
  %75 = call ptr @OSSL_PARAM_locate_const(ptr noundef %74, ptr noundef @.str.5)
  store ptr %75, ptr %6, align 8, !tbaa !23
  %76 = icmp ne ptr %75, null
  br i1 %76, label %77, label %87

77:                                               ; preds = %73
  %78 = load ptr, ptr %7, align 8, !tbaa !3
  %79 = getelementptr inbounds nuw %struct.KDF_SSHKDF, ptr %78, i32 0, i32 7
  %80 = load ptr, ptr %7, align 8, !tbaa !3
  %81 = getelementptr inbounds nuw %struct.KDF_SSHKDF, ptr %80, i32 0, i32 8
  %82 = load ptr, ptr %6, align 8, !tbaa !23
  %83 = call i32 @sshkdf_set_membuf(ptr noundef %79, ptr noundef %81, ptr noundef %82)
  %84 = icmp ne i32 %83, 0
  br i1 %84, label %86, label %85

85:                                               ; preds = %77
  store i32 0, ptr %3, align 4
  store i32 1, ptr %9, align 4
  br label %128

86:                                               ; preds = %77
  br label %87

87:                                               ; preds = %86, %73
  %88 = load ptr, ptr %5, align 8, !tbaa !23
  %89 = call ptr @OSSL_PARAM_locate_const(ptr noundef %88, ptr noundef @.str.6)
  store ptr %89, ptr %6, align 8, !tbaa !23
  %90 = icmp ne ptr %89, null
  br i1 %90, label %91, label %127

91:                                               ; preds = %87
  call void @llvm.lifetime.start.p0(i64 8, ptr %11) #6
  %92 = load ptr, ptr %6, align 8, !tbaa !23
  %93 = call i32 @OSSL_PARAM_get_utf8_string_ptr(ptr noundef %92, ptr noundef %11)
  %94 = icmp ne i32 %93, 0
  br i1 %94, label %96, label %95

95:                                               ; preds = %91
  store i32 0, ptr %3, align 4
  store i32 1, ptr %9, align 4
  br label %124

96:                                               ; preds = %91
  %97 = load ptr, ptr %11, align 8, !tbaa !21
  %98 = icmp eq ptr %97, null
  br i1 %98, label %104, label %99

99:                                               ; preds = %96
  %100 = load ptr, ptr %6, align 8, !tbaa !23
  %101 = getelementptr inbounds nuw %struct.ossl_param_st, ptr %100, i32 0, i32 3
  %102 = load i64, ptr %101, align 8, !tbaa !28
  %103 = icmp ne i64 %102, 1
  br i1 %103, label %104, label %105

104:                                              ; preds = %99, %96
  store i32 0, ptr %3, align 4
  store i32 1, ptr %9, align 4
  br label %124

105:                                              ; preds = %99
  %106 = load ptr, ptr %11, align 8, !tbaa !21
  %107 = getelementptr inbounds i8, ptr %106, i64 0
  %108 = load i8, ptr %107, align 1, !tbaa !31
  %109 = sext i8 %108 to i32
  %110 = icmp slt i32 %109, 65
  br i1 %110, label %117, label %111

111:                                              ; preds = %105
  %112 = load ptr, ptr %11, align 8, !tbaa !21
  %113 = getelementptr inbounds i8, ptr %112, i64 0
  %114 = load i8, ptr %113, align 1, !tbaa !31
  %115 = sext i8 %114 to i32
  %116 = icmp sgt i32 %115, 70
  br i1 %116, label %117, label %118

117:                                              ; preds = %111, %105
  call void @ERR_new()
  call void @ERR_set_debug(ptr noundef @.str, i32 noundef 273, ptr noundef @__func__.kdf_sshkdf_set_ctx_params)
  call void (i32, i32, ptr, ...) @ERR_set_error(i32 noundef 57, i32 noundef 138, ptr noundef null)
  store i32 0, ptr %3, align 4
  store i32 1, ptr %9, align 4
  br label %124

118:                                              ; preds = %111
  %119 = load ptr, ptr %11, align 8, !tbaa !21
  %120 = getelementptr inbounds i8, ptr %119, i64 0
  %121 = load i8, ptr %120, align 1, !tbaa !31
  %122 = load ptr, ptr %7, align 8, !tbaa !3
  %123 = getelementptr inbounds nuw %struct.KDF_SSHKDF, ptr %122, i32 0, i32 6
  store i8 %121, ptr %123, align 8, !tbaa !20
  store i32 0, ptr %9, align 4
  br label %124

124:                                              ; preds = %118, %117, %104, %95
  call void @llvm.lifetime.end.p0(i64 8, ptr %11) #6
  %125 = load i32, ptr %9, align 4
  switch i32 %125, label %128 [
    i32 0, label %126
  ]

126:                                              ; preds = %124
  br label %127

127:                                              ; preds = %126, %87
  store i32 1, ptr %3, align 4
  store i32 1, ptr %9, align 4
  br label %128

128:                                              ; preds = %127, %124, %85, %71, %57, %42, %20
  call void @llvm.lifetime.end.p0(i64 8, ptr %8) #6
  call void @llvm.lifetime.end.p0(i64 8, ptr %7) #6
  call void @llvm.lifetime.end.p0(i64 8, ptr %6) #6
  %129 = load i32, ptr %3, align 4
  ret i32 %129
}