; Function Attrs: nounwind uwtable
define internal range(i32 0, 2) i32 @kdf_sshkdf_set_ctx_params(ptr noundef %0, ptr noundef %1) #0 {
  %3 = alloca ptr, align 8
  %4 = load ptr, ptr %0, align 8, !tbaa !3
  %5 = tail call ptr @ossl_prov_ctx_get0_libctx(ptr noundef %4) #6
  %6 = icmp eq ptr %1, null
  br i1 %6, label %.critedge, label %ossl_param_is_empty.exit

ossl_param_is_empty.exit:                         ; preds = %2
  %7 = load ptr, ptr %1, align 8, !tbaa !25
  %.not = icmp eq ptr %7, null
  br i1 %.not, label %.critedge, label %8

8:                                                ; preds = %ossl_param_is_empty.exit
  %9 = tail call ptr @OSSL_PARAM_locate_const(ptr noundef nonnull %1, ptr noundef nonnull @.str.2) #6
  %.not36 = icmp eq ptr %9, null
  br i1 %.not36, label %17, label %10

10:                                               ; preds = %8
  %11 = getelementptr inbounds nuw i8, ptr %0, i64 8
  %12 = tail call i32 @ossl_prov_digest_load_from_params(ptr noundef nonnull %11, ptr noundef nonnull %1, ptr noundef %5) #6
  %.not37 = icmp eq i32 %12, 0
  br i1 %.not37, label %.critedge, label %13

13:                                               ; preds = %10
  %14 = tail call ptr @ossl_prov_digest_md(ptr noundef nonnull %11) #6
  %15 = tail call i32 @EVP_MD_xof(ptr noundef %14) #6
  %.not38 = icmp eq i32 %15, 0
  br i1 %.not38, label %17, label %16

16:                                               ; preds = %13
  tail call void @ERR_new() #6
  tail call void @ERR_set_debug(ptr noundef nonnull @.str, i32 noundef 233, ptr noundef nonnull @__func__.kdf_sshkdf_set_ctx_params) #6
  tail call void (i32, i32, ptr, ...) @ERR_set_error(i32 noundef 57, i32 noundef 183, ptr noundef null) #6
  br label %.critedge

17:                                               ; preds = %13, %8
  %18 = tail call ptr @OSSL_PARAM_locate_const(ptr noundef nonnull %1, ptr noundef nonnull @.str.3) #6
  %.not39 = icmp eq ptr %18, null
  br i1 %.not39, label %25, label %19

19:                                               ; preds = %17
  %20 = getelementptr inbounds nuw i8, ptr %0, i64 32
  %21 = getelementptr inbounds nuw i8, ptr %0, i64 40
  %22 = load ptr, ptr %20, align 8, !tbaa !27
  %23 = load i64, ptr %21, align 8, !tbaa !28
  tail call void @CRYPTO_clear_free(ptr noundef %22, i64 noundef %23, ptr noundef nonnull @.str, i32 noundef 121) #6
  tail call void @llvm.memset.p0.i64(ptr noundef nonnull align 8 dereferenceable(16) %20, i8 0, i64 16, i1 false)
  %24 = tail call i32 @OSSL_PARAM_get_octet_string(ptr noundef nonnull %18, ptr noundef nonnull %20, i64 noundef 0, ptr noundef nonnull %21) #6
  %.not40 = icmp eq i32 %24, 0
  br i1 %.not40, label %.critedge, label %25

25:                                               ; preds = %19, %17
  %26 = tail call ptr @OSSL_PARAM_locate_const(ptr noundef nonnull %1, ptr noundef nonnull @.str.4) #6
  %.not41 = icmp eq ptr %26, null
  br i1 %.not41, label %33, label %27

27:                                               ; preds = %25
  %28 = getelementptr inbounds nuw i8, ptr %0, i64 48
  %29 = getelementptr inbounds nuw i8, ptr %0, i64 56
  %30 = load ptr, ptr %28, align 8, !tbaa !27
  %31 = load i64, ptr %29, align 8, !tbaa !28
  tail call void @CRYPTO_clear_free(ptr noundef %30, i64 noundef %31, ptr noundef nonnull @.str, i32 noundef 121) #6
  tail call void @llvm.memset.p0.i64(ptr noundef nonnull align 8 dereferenceable(16) %28, i8 0, i64 16, i1 false)
  %32 = tail call i32 @OSSL_PARAM_get_octet_string(ptr noundef nonnull %26, ptr noundef nonnull %28, i64 noundef 0, ptr noundef nonnull %29) #6
  %.not42 = icmp eq i32 %32, 0
  br i1 %.not42, label %.critedge, label %33

33:                                               ; preds = %27, %25
  %34 = tail call ptr @OSSL_PARAM_locate_const(ptr noundef nonnull %1, ptr noundef nonnull @.str.5) #6
  %.not43 = icmp eq ptr %34, null
  br i1 %.not43, label %41, label %35

35:                                               ; preds = %33
  %36 = getelementptr inbounds nuw i8, ptr %0, i64 72
  %37 = getelementptr inbounds nuw i8, ptr %0, i64 80
  %38 = load ptr, ptr %36, align 8, !tbaa !27
  %39 = load i64, ptr %37, align 8, !tbaa !28
  tail call void @CRYPTO_clear_free(ptr noundef %38, i64 noundef %39, ptr noundef nonnull @.str, i32 noundef 121) #6
  tail call void @llvm.memset.p0.i64(ptr noundef nonnull align 8 dereferenceable(16) %36, i8 0, i64 16, i1 false)
  %40 = tail call i32 @OSSL_PARAM_get_octet_string(ptr noundef nonnull %34, ptr noundef nonnull %36, i64 noundef 0, ptr noundef nonnull %37) #6
  %.not44 = icmp eq i32 %40, 0
  br i1 %.not44, label %.critedge, label %41

41:                                               ; preds = %35, %33
  %42 = tail call ptr @OSSL_PARAM_locate_const(ptr noundef nonnull %1, ptr noundef nonnull @.str.6) #6
  %.not45 = icmp eq ptr %42, null
  br i1 %.not45, label %.critedge, label %43

43:                                               ; preds = %41
  call void @llvm.lifetime.start.p0(i64 8, ptr nonnull %3) #6
  %44 = call i32 @OSSL_PARAM_get_utf8_string_ptr(ptr noundef nonnull %42, ptr noundef nonnull %3) #6
  %.not46 = icmp eq i32 %44, 0
  br i1 %.not46, label %.critedge49, label %45

45:                                               ; preds = %43
  %46 = load ptr, ptr %3, align 8, !tbaa !27
  %47 = icmp eq ptr %46, null
  br i1 %47, label %.critedge49, label %48

48:                                               ; preds = %45
  %49 = getelementptr inbounds nuw i8, ptr %42, i64 24
  %50 = load i64, ptr %49, align 8, !tbaa !29
  %.not47 = icmp eq i64 %50, 1
  br i1 %.not47, label %51, label %.critedge49

51:                                               ; preds = %48
  %52 = load i8, ptr %46, align 1, !tbaa !20
  %53 = add i8 %52, -71
  %or.cond = icmp ult i8 %53, -6
  br i1 %or.cond, label %54, label %55

54:                                               ; preds = %51
  call void @ERR_new() #6
  call void @ERR_set_debug(ptr noundef nonnull @.str, i32 noundef 273, ptr noundef nonnull @__func__.kdf_sshkdf_set_ctx_params) #6
  call void (i32, i32, ptr, ...) @ERR_set_error(i32 noundef 57, i32 noundef 138, ptr noundef null) #6
  br label %.critedge49

55:                                               ; preds = %51
  %56 = getelementptr inbounds nuw i8, ptr %0, i64 64
  store i8 %52, ptr %56, align 8, !tbaa !19
  call void @llvm.lifetime.end.p0(i64 8, ptr nonnull %3) #6
  br label %.critedge

.critedge49:                                      ; preds = %45, %48, %43, %54
  call void @llvm.lifetime.end.p0(i64 8, ptr nonnull %3) #6
  br label %.critedge

.critedge:                                        ; preds = %2, %16, %10, %41, %55, %.critedge49, %35, %27, %19, %ossl_param_is_empty.exit
  %.028 = phi i32 [ 1, %ossl_param_is_empty.exit ], [ 0, %19 ], [ 0, %27 ], [ 0, %35 ], [ 0, %.critedge49 ], [ 1, %55 ], [ 1, %41 ], [ 0, %10 ], [ 0, %16 ], [ 1, %2 ]
  ret i32 %.028
}